; Function Attrs: nofree norecurse nosync nounwind memory(argmem: readwrite) uwtable
define internal void @h264_h_loop_filter_chroma_mbaff_8_c(ptr noundef captures(none) %0, i64 noundef %1, i32 noundef %2, i32 noundef %3, ptr noundef readonly captures(none) %4) #1 {
  br label %6

6:                                                ; preds = %5, %.loopexit
  %indvars.iv = phi i64 [ 0, %5 ], [ %indvars.iv.next, %.loopexit ]
  %.0.i6 = phi ptr [ %0, %5 ], [ %.1.i, %.loopexit ]
  %7 = getelementptr inbounds nuw i8, ptr %4, i64 %indvars.iv
  %8 = load i8, ptr %7, align 1, !tbaa !42
  %9 = sext i8 %8 to i32
  %10 = icmp slt i8 %8, 1
  br i1 %10, label %.loopexit, label %.preheader

.preheader:                                       ; preds = %6
  %11 = sub nsw i32 0, %9
  %12 = getelementptr inbounds i8, ptr %.0.i6, i64 -1
  %13 = load i8, ptr %12, align 1, !tbaa !42
  %14 = zext i8 %13 to i32
  %15 = getelementptr inbounds i8, ptr %.0.i6, i64 -2
  %16 = load i8, ptr %15, align 1, !tbaa !42
  %17 = zext i8 %16 to i32
  %18 = load i8, ptr %.0.i6, align 1, !tbaa !42
  %19 = zext i8 %18 to i32
  %20 = getelementptr inbounds nuw i8, ptr %.0.i6, i64 1
  %21 = load i8, ptr %20, align 1, !tbaa !42
  %22 = zext i8 %21 to i32
  %23 = sub nsw i32 %14, %19
  %24 = tail call i32 @llvm.abs.i32(i32 %23, i1 true)
  %25 = icmp slt i32 %24, %2
  br i1 %25, label %26, label %.loopexit

26:                                               ; preds = %.preheader
  %27 = sub nsw i32 %17, %14
  %28 = tail call i32 @llvm.abs.i32(i32 %27, i1 true)
  %29 = icmp slt i32 %28, %3
  br i1 %29, label %30, label %.loopexit

30:                                               ; preds = %26
  %31 = sub nsw i32 %22, %19
  %32 = tail call i32 @llvm.abs.i32(i32 %31, i1 true)
  %33 = icmp samesign ult i32 %32, %3
  br i1 %33, label %34, label %.loopexit

34:                                               ; preds = %30
  %35 = sub nsw i32 %19, %14
  %36 = shl nsw i32 %35, 2
  %37 = add nuw nsw i32 %17, 4
  %38 = sub nsw i32 %37, %22
  %39 = add nsw i32 %38, %36
  %40 = ashr i32 %39, 3
  %41 = icmp slt i32 %40, %11
  %..i.i = tail call i32 @llvm.smin.i32(i32 %40, i32 %9)
  %.0.i.i = select i1 %41, i32 %11, i32 %..i.i
  %42 = add nsw i32 %.0.i.i, %14
  %.not.i69.i = icmp ult i32 %42, 256
  %isnotneg.i70.i = icmp sgt i32 %42, -1
  %43 = sext i1 %isnotneg.i70.i to i8
  %44 = trunc nuw i32 %42 to i8
  %.0.i71.i = select i1 %.not.i69.i, i8 %44, i8 %43
  store i8 %.0.i71.i, ptr %12, align 1, !tbaa !42
  %45 = sub nsw i32 %19, %.0.i.i
  %.not.i.i = icmp ult i32 %45, 256
  %isnotneg.i.i = icmp sgt i32 %45, -1
  %46 = sext i1 %isnotneg.i.i to i8
  %47 = trunc nuw i32 %45 to i8
  %.0.i68.i = select i1 %.not.i.i, i8 %47, i8 %46
  store i8 %.0.i68.i, ptr %.0.i6, align 1, !tbaa !42
  br label %.loopexit

.loopexit:                                        ; preds = %.preheader, %26, %30, %34, %6
  %.1.i = getelementptr inbounds i8, ptr %.0.i6, i64 %1
  %indvars.iv.next = add nuw nsw i64 %indvars.iv, 1
  %exitcond.not = icmp eq i64 %indvars.iv.next, 4
  br i1 %exitcond.not, label %h264_loop_filter_chroma_8_c.exit, label %6, !llvm.loop !113

h264_loop_filter_chroma_8_c.exit:                 ; preds = %.loopexit
  ret void
}